target datalayout = "e-m:e-p270:32:32-p271:32:32-p272:64:64-i64:64-i128:128-f80:128-n8:16:32:64-S128"
target triple = "x86_64-pc-linux-gnu"

%struct.zlentry = type { i32, i32, i32, i32, i32, i8, ptr }

@.str = private unnamed_addr constant [5 x i8] c"NULL\00", align 1
@.str.1 = private unnamed_addr constant [10 x i8] c"ziplist.c\00", align 1
@.str.14 = private unnamed_addr constant [36 x i8] c"zipEntrySafe(zl, zlbytes, p, &e, 1)\00", align 1
@.str.15 = private unnamed_addr constant [10 x i8] c"vencoding\00", align 1

; Function Attrs: nounwind uwtable
define dso_local i64 @zipLoadInteger(ptr noundef %0, i8 noundef zeroext %1) #0 {
  %3 = alloca ptr, align 8
  %4 = alloca i8, align 1
  %5 = alloca i16, align 2
  %6 = alloca i32, align 4
  %7 = alloca i64, align 8
  %8 = alloca i64, align 8
  store ptr %0, ptr %3, align 8, !tbaa !5
  store i8 %1, ptr %4, align 1, !tbaa !14
  call void @llvm.lifetime.start.p0(i64 2, ptr %5) #11
  call void @llvm.lifetime.start.p0(i64 4, ptr %6) #11
  call void @llvm.lifetime.start.p0(i64 8, ptr %7) #11
  call void @llvm.lifetime.start.p0(i64 8, ptr %8) #11
  store i64 0, ptr %8, align 8, !tbaa !10
  %9 = load i8, ptr %4, align 1, !tbaa !14
  %10 = zext i8 %9 to i32
  %11 = icmp eq i32 %10, 254
  br i1 %11, label %12, label %17

12:                                               ; preds = %2
  %13 = load ptr, ptr %3, align 8, !tbaa !5
  %14 = getelementptr inbounds i8, ptr %13, i64 0
  %15 = load i8, ptr %14, align 1, !tbaa !14
  %16 = sext i8 %15 to i64
  store i64 %16, ptr %8, align 8, !tbaa !10
  br label %70

17:                                               ; preds = %2
  %18 = load i8, ptr %4, align 1, !tbaa !14
  %19 = zext i8 %18 to i32
  %20 = icmp eq i32 %19, 192
  br i1 %20, label %21, label %25

21:                                               ; preds = %17
  %22 = load ptr, ptr %3, align 8, !tbaa !5
  call void @llvm.memcpy.p0.p0.i64(ptr align 2 %5, ptr align 1 %22, i64 2, i1 false)
  %23 = load i16, ptr %5, align 2, !tbaa !19
  %24 = sext i16 %23 to i64
  store i64 %24, ptr %8, align 8, !tbaa !10
  br label %69

25:                                               ; preds = %17
  %26 = load i8, ptr %4, align 1, !tbaa !14
  %27 = zext i8 %26 to i32
  %28 = icmp eq i32 %27, 208
  br i1 %28, label %29, label %33

29:                                               ; preds = %25
  %30 = load ptr, ptr %3, align 8, !tbaa !5
  call void @llvm.memcpy.p0.p0.i64(ptr align 4 %6, ptr align 1 %30, i64 4, i1 false)
  %31 = load i32, ptr %6, align 4, !tbaa !12
  %32 = sext i32 %31 to i64
  store i64 %32, ptr %8, align 8, !tbaa !10
  br label %68

33:                                               ; preds = %25
  %34 = load i8, ptr %4, align 1, !tbaa !14
  %35 = zext i8 %34 to i32
  %36 = icmp eq i32 %35, 240
  br i1 %36, label %37, label %43

37:                                               ; preds = %33
  store i32 0, ptr %6, align 4, !tbaa !12
  %38 = getelementptr inbounds i8, ptr %6, i64 1
  %39 = load ptr, ptr %3, align 8, !tbaa !5
  call void @llvm.memcpy.p0.p0.i64(ptr align 1 %38, ptr align 1 %39, i64 3, i1 false)
  %40 = load i32, ptr %6, align 4, !tbaa !12
  %41 = ashr i32 %40, 8
  %42 = sext i32 %41 to i64
  store i64 %42, ptr %8, align 8, !tbaa !10
  br label %67

43:                                               ; preds = %33
  %44 = load i8, ptr %4, align 1, !tbaa !14
  %45 = zext i8 %44 to i32
  %46 = icmp eq i32 %45, 224
  br i1 %46, label %47, label %50

47:                                               ; preds = %43
  %48 = load ptr, ptr %3, align 8, !tbaa !5
  call void @llvm.memcpy.p0.p0.i64(ptr align 8 %7, ptr align 1 %48, i64 8, i1 false)
  %49 = load i64, ptr %7, align 8, !tbaa !10
  store i64 %49, ptr %8, align 8, !tbaa !10
  br label %66

50:                                               ; preds = %43
  %51 = load i8, ptr %4, align 1, !tbaa !14
  %52 = zext i8 %51 to i32
  %53 = icmp sge i32 %52, 241
  br i1 %53, label %54, label %64

54:                                               ; preds = %50
  %55 = load i8, ptr %4, align 1, !tbaa !14
  %56 = zext i8 %55 to i32
  %57 = icmp sle i32 %56, 253
  br i1 %57, label %58, label %64

58:                                               ; preds = %54
  %59 = load i8, ptr %4, align 1, !tbaa !14
  %60 = zext i8 %59 to i32
  %61 = and i32 %60, 15
  %62 = sub nsw i32 %61, 1
  %63 = sext i32 %62 to i64
  store i64 %63, ptr %8, align 8, !tbaa !10
  br label %65

64:                                               ; preds = %54, %50
  call void @_serverAssert(ptr noundef @.str, ptr noundef @.str.1, i32 noundef 604)
  call void @abort() #12
  unreachable

65:                                               ; preds = %58
  br label %66

66:                                               ; preds = %65, %47
  br label %67

67:                                               ; preds = %66, %37
  br label %68

68:                                               ; preds = %67, %29
  br label %69

69:                                               ; preds = %68, %21
  br label %70

70:                                               ; preds = %69, %12
  %71 = load i64, ptr %8, align 8, !tbaa !10
  call void @llvm.lifetime.end.p0(i64 8, ptr %8) #11
  call void @llvm.lifetime.end.p0(i64 8, ptr %7) #11
  call void @llvm.lifetime.end.p0(i64 4, ptr %6) #11
  call void @llvm.lifetime.end.p0(i64 2, ptr %5) #11
  ret i64 %71
}

; Function Attrs: nounwind uwtable
define dso_local i32 @zipTryEncoding(ptr noundef %0, i32 noundef %1, ptr noundef %2, ptr noundef %3) #0 {
  %5 = alloca i32, align 4
  %6 = alloca ptr, align 8
  %7 = alloca i32, align 4
  %8 = alloca ptr, align 8
  %9 = alloca ptr, align 8
  %10 = alloca i64, align 8
  %11 = alloca i32, align 4
  store ptr %0, ptr %6, align 8, !tbaa !5
  store i32 %1, ptr %7, align 4, !tbaa !12
  store ptr %2, ptr %8, align 8, !tbaa !15
  store ptr %3, ptr %9, align 8, !tbaa !5
  call void @llvm.lifetime.start.p0(i64 8, ptr %10) #11
  %12 = load i32, ptr %7, align 4, !tbaa !12
  %13 = icmp uge i32 %12, 32
  br i1 %13, label %17, label %14

14:                                               ; preds = %4
  %15 = load i32, ptr %7, align 4, !tbaa !12
  %16 = icmp eq i32 %15, 0
  br i1 %16, label %17, label %18

17:                                               ; preds = %14, %4
  store i32 0, ptr %5, align 4
  store i32 1, ptr %11, align 4
  br label %77

18:                                               ; preds = %14
  %19 = load ptr, ptr %6, align 8, !tbaa !5
  %20 = load i32, ptr %7, align 4, !tbaa !12
  %21 = zext i32 %20 to i64
  %22 = call i32 @string2ll(ptr noundef %19, i64 noundef %21, ptr noundef %10)
  %23 = icmp ne i32 %22, 0
  br i1 %23, label %24, label %76

24:                                               ; preds = %18
  %25 = load i64, ptr %10, align 8, !tbaa !17
  %26 = icmp sge i64 %25, 0
  br i1 %26, label %27, label %35

27:                                               ; preds = %24
  %28 = load i64, ptr %10, align 8, !tbaa !17
  %29 = icmp sle i64 %28, 12
  br i1 %29, label %30, label %35

30:                                               ; preds = %27
  %31 = load i64, ptr %10, align 8, !tbaa !17
  %32 = add nsw i64 241, %31
  %33 = trunc i64 %32 to i8
  %34 = load ptr, ptr %9, align 8, !tbaa !5
  store i8 %33, ptr %34, align 1, !tbaa !14
  br label %73

35:                                               ; preds = %27, %24
  %36 = load i64, ptr %10, align 8, !tbaa !17
  %37 = icmp sge i64 %36, -128
  br i1 %37, label %38, label %43

38:                                               ; preds = %35
  %39 = load i64, ptr %10, align 8, !tbaa !17
  %40 = icmp sle i64 %39, 127
  br i1 %40, label %41, label %43

41:                                               ; preds = %38
  %42 = load ptr, ptr %9, align 8, !tbaa !5
  store i8 -2, ptr %42, align 1, !tbaa !14
  br label %72

43:                                               ; preds = %38, %35
  %44 = load i64, ptr %10, align 8, !tbaa !17
  %45 = icmp sge i64 %44, -32768
  br i1 %45, label %46, label %51

46:                                               ; preds = %43
  %47 = load i64, ptr %10, align 8, !tbaa !17
  %48 = icmp sle i64 %47, 32767
  br i1 %48, label %49, label %51

49:                                               ; preds = %46
  %50 = load ptr, ptr %9, align 8, !tbaa !5
  store i8 -64, ptr %50, align 1, !tbaa !14
  br label %71

51:                                               ; preds = %46, %43
  %52 = load i64, ptr %10, align 8, !tbaa !17
  %53 = icmp sge i64 %52, -8388608
  br i1 %53, label %54, label %59

54:                                               ; preds = %51
  %55 = load i64, ptr %10, align 8, !tbaa !17
  %56 = icmp sle i64 %55, 8388607
  br i1 %56, label %57, label %59

57:                                               ; preds = %54
  %58 = load ptr, ptr %9, align 8, !tbaa !5
  store i8 -16, ptr %58, align 1, !tbaa !14
  br label %70

59:                                               ; preds = %54, %51
  %60 = load i64, ptr %10, align 8, !tbaa !17
  %61 = icmp sge i64 %60, -2147483648
  br i1 %61, label %62, label %67

62:                                               ; preds = %59
  %63 = load i64, ptr %10, align 8, !tbaa !17
  %64 = icmp sle i64 %63, 2147483647
  br i1 %64, label %65, label %67

65:                                               ; preds = %62
  %66 = load ptr, ptr %9, align 8, !tbaa !5
  store i8 -48, ptr %66, align 1, !tbaa !14
  br label %69

67:                                               ; preds = %62, %59
  %68 = load ptr, ptr %9, align 8, !tbaa !5
  store i8 -32, ptr %68, align 1, !tbaa !14
  br label %69

69:                                               ; preds = %67, %65
  br label %70

70:                                               ; preds = %69, %57
  br label %71

71:                                               ; preds = %70, %49
  br label %72

72:                                               ; preds = %71, %41
  br label %73

73:                                               ; preds = %72, %30
  %74 = load i64, ptr %10, align 8, !tbaa !17
  %75 = load ptr, ptr %8, align 8, !tbaa !15
  store i64 %74, ptr %75, align 8, !tbaa !17
  store i32 1, ptr %5, align 4
  store i32 1, ptr %11, align 4
  br label %77

76:                                               ; preds = %18
  store i32 0, ptr %5, align 4
  store i32 1, ptr %11, align 4
  br label %77

77:                                               ; preds = %76, %73, %17
  call void @llvm.lifetime.end.p0(i64 8, ptr %10) #11
  %78 = load i32, ptr %5, align 4
  ret i32 %78
}

; Function Attrs: nounwind uwtable
define dso_local i64 @ziplistBlobLen(ptr noundef %0) #0 {
  %2 = alloca ptr, align 8
  store ptr %0, ptr %2, align 8, !tbaa !5
  %3 = load ptr, ptr %2, align 8, !tbaa !5
  %4 = load i32, ptr %3, align 4, !tbaa !12
  %5 = zext i32 %4 to i64
  ret i64 %5
}

; Function Attrs: nounwind uwtable
define dso_local ptr @ziplistFind(ptr noundef %0, ptr noundef %1, ptr noundef %2, i32 noundef %3, i32 noundef %4) #0 {
  %6 = alloca ptr, align 8
  %7 = alloca ptr, align 8
  %8 = alloca ptr, align 8
  %9 = alloca ptr, align 8
  %10 = alloca i32, align 4
  %11 = alloca i32, align 4
  %12 = alloca i32, align 4
  %13 = alloca i8, align 1
  %14 = alloca i64, align 8
  %15 = alloca i64, align 8
  %16 = alloca %struct.zlentry, align 8
  %17 = alloca ptr, align 8
  %18 = alloca i32, align 4
  %19 = alloca i64, align 8
  store ptr %0, ptr %7, align 8, !tbaa !5
  store ptr %1, ptr %8, align 8, !tbaa !5
  store ptr %2, ptr %9, align 8, !tbaa !5
  store i32 %3, ptr %10, align 4, !tbaa !12
  store i32 %4, ptr %11, align 4, !tbaa !12
  call void @llvm.lifetime.start.p0(i64 4, ptr %12) #11
  store i32 0, ptr %12, align 4, !tbaa !12
  call void @llvm.lifetime.start.p0(i64 1, ptr %13) #11
  store i8 0, ptr %13, align 1, !tbaa !14
  call void @llvm.lifetime.start.p0(i64 8, ptr %14) #11
  store i64 0, ptr %14, align 8, !tbaa !17
  call void @llvm.lifetime.start.p0(i64 8, ptr %15) #11
  %20 = load ptr, ptr %7, align 8, !tbaa !5
  %21 = call i64 @ziplistBlobLen(ptr noundef %20)
  store i64 %21, ptr %15, align 8, !tbaa !10
  br label %22

22:                                               ; preds = %131, %5
  %23 = load ptr, ptr %8, align 8, !tbaa !5
  %24 = getelementptr inbounds i8, ptr %23, i64 0
  %25 = load i8, ptr %24, align 1, !tbaa !14
  %26 = zext i8 %25 to i32
  %27 = icmp ne i32 %26, 255
  br i1 %27, label %28, label %132

28:                                               ; preds = %22
  call void @llvm.lifetime.start.p0(i64 32, ptr %16) #11
  call void @llvm.lifetime.start.p0(i64 8, ptr %17) #11
  %29 = load ptr, ptr %7, align 8, !tbaa !5
  %30 = load i64, ptr %15, align 8, !tbaa !10
  %31 = load ptr, ptr %8, align 8, !tbaa !5
  %32 = call i32 @zipEntrySafe(ptr noundef %29, i64 noundef %30, ptr noundef %31, ptr noundef %16, i32 noundef 1)
  %33 = icmp ne i32 %32, 0
  %34 = xor i1 %33, true
  %35 = xor i1 %34, true
  %36 = zext i1 %35 to i32
  %37 = sext i32 %36 to i64
  %38 = call i64 @llvm.expect.i64(i64 %37, i64 1)
  %39 = icmp ne i64 %38, 0
  br i1 %39, label %40, label %41

40:                                               ; preds = %28
  br label %43

41:                                               ; preds = %28
  call void @_serverAssert(ptr noundef @.str.14, ptr noundef @.str.1, i32 noundef 1359)
  call void @abort() #12
  unreachable

42:                                               ; No predecessors!
  br label %43

43:                                               ; preds = %42, %40
  %44 = load ptr, ptr %8, align 8, !tbaa !5
  %45 = getelementptr inbounds nuw %struct.zlentry, ptr %16, i32 0, i32 0
  %46 = load i32, ptr %45, align 8, !tbaa !25
  %47 = zext i32 %46 to i64
  %48 = getelementptr inbounds nuw i8, ptr %44, i64 %47
  %49 = getelementptr inbounds nuw %struct.zlentry, ptr %16, i32 0, i32 2
  %50 = load i32, ptr %49, align 8, !tbaa !32
  %51 = zext i32 %50 to i64
  %52 = getelementptr inbounds nuw i8, ptr %48, i64 %51
  store ptr %52, ptr %17, align 8, !tbaa !5
  %53 = load i32, ptr %12, align 4, !tbaa !12
  %54 = icmp eq i32 %53, 0
  br i1 %54, label %55, label %120

55:                                               ; preds = %43
  %56 = getelementptr inbounds nuw %struct.zlentry, ptr %16, i32 0, i32 5
  %57 = load i8, ptr %56, align 4, !tbaa !31
  %58 = zext i8 %57 to i32
  %59 = and i32 %58, 192
  %60 = icmp slt i32 %59, 192
  br i1 %60, label %61, label %76

61:                                               ; preds = %55
  %62 = getelementptr inbounds nuw %struct.zlentry, ptr %16, i32 0, i32 3
  %63 = load i32, ptr %62, align 4, !tbaa !23
  %64 = load i32, ptr %10, align 4, !tbaa !12
  %65 = icmp eq i32 %63, %64
  br i1 %65, label %66, label %75

66:                                               ; preds = %61
  %67 = load ptr, ptr %17, align 8, !tbaa !5
  %68 = load ptr, ptr %9, align 8, !tbaa !5
  %69 = load i32, ptr %10, align 4, !tbaa !12
  %70 = zext i32 %69 to i64
  %71 = call i32 @memcmp(ptr noundef %67, ptr noundef %68, i64 noundef %70) #15
  %72 = icmp eq i32 %71, 0
  br i1 %72, label %73, label %75

73:                                               ; preds = %66
  %74 = load ptr, ptr %8, align 8, !tbaa !5
  store ptr %74, ptr %6, align 8
  store i32 1, ptr %18, align 4
  br label %129

75:                                               ; preds = %66, %61
  br label %118

76:                                               ; preds = %55
  %77 = load i8, ptr %13, align 1, !tbaa !14
  %78 = zext i8 %77 to i32
  %79 = icmp eq i32 %78, 0
  br i1 %79, label %80, label %99

80:                                               ; preds = %76
  %81 = load ptr, ptr %9, align 8, !tbaa !5
  %82 = load i32, ptr %10, align 4, !tbaa !12
  %83 = call i32 @zipTryEncoding(ptr noundef %81, i32 noundef %82, ptr noundef %14, ptr noundef %13)
  %84 = icmp ne i32 %83, 0
  br i1 %84, label %86, label %85

85:                                               ; preds = %80
  store i8 -1, ptr %13, align 1, !tbaa !14
  br label %86

86:                                               ; preds = %85, %80
  %87 = load i8, ptr %13, align 1, !tbaa !14
  %88 = icmp ne i8 %87, 0
  %89 = xor i1 %88, true
  %90 = xor i1 %89, true
  %91 = zext i1 %90 to i32
  %92 = sext i32 %91 to i64
  %93 = call i64 @llvm.expect.i64(i64 %92, i64 1)
  %94 = icmp ne i64 %93, 0
  br i1 %94, label %95, label %96

95:                                               ; preds = %86
  br label %98

96:                                               ; preds = %86
  call void @_serverAssert(ptr noundef @.str.15, ptr noundef @.str.1, i32 noundef 1380)
  call void @abort() #12
  unreachable

97:                                               ; No predecessors!
  br label %98

98:                                               ; preds = %97, %95
  br label %99

99:                                               ; preds = %98, %76
  %100 = load i8, ptr %13, align 1, !tbaa !14
  %101 = zext i8 %100 to i32
  %102 = icmp ne i32 %101, 255
  br i1 %102, label %103, label %117

103:                                              ; preds = %99
  call void @llvm.lifetime.start.p0(i64 8, ptr %19) #11
  %104 = load ptr, ptr %17, align 8, !tbaa !5
  %105 = getelementptr inbounds nuw %struct.zlentry, ptr %16, i32 0, i32 5
  %106 = load i8, ptr %105, align 4, !tbaa !31
  %107 = call i64 @zipLoadInteger(ptr noundef %104, i8 noundef zeroext %106)
  store i64 %107, ptr %19, align 8, !tbaa !17
  %108 = load i64, ptr %19, align 8, !tbaa !17
  %109 = load i64, ptr %14, align 8, !tbaa !17
  %110 = icmp eq i64 %108, %109
  br i1 %110, label %111, label %113

111:                                              ; preds = %103
  %112 = load ptr, ptr %8, align 8, !tbaa !5
  store ptr %112, ptr %6, align 8
  store i32 1, ptr %18, align 4
  br label %114

113:                                              ; preds = %103
  store i32 0, ptr %18, align 4
  br label %114

114:                                              ; preds = %113, %111
  call void @llvm.lifetime.end.p0(i64 8, ptr %19) #11
  %115 = load i32, ptr %18, align 4
  switch i32 %115, label %129 [
    i32 0, label %116
  ]

116:                                              ; preds = %114
  br label %117

117:                                              ; preds = %116, %99
  br label %118

118:                                              ; preds = %117, %75
  %119 = load i32, ptr %11, align 4, !tbaa !12
  store i32 %119, ptr %12, align 4, !tbaa !12
  br label %123

120:                                              ; preds = %43
  %121 = load i32, ptr %12, align 4, !tbaa !12
  %122 = add nsw i32 %121, -1
  store i32 %122, ptr %12, align 4, !tbaa !12
  br label %123

123:                                              ; preds = %120, %118
  %124 = load ptr, ptr %17, align 8, !tbaa !5
  %125 = getelementptr inbounds nuw %struct.zlentry, ptr %16, i32 0, i32 3
  %126 = load i32, ptr %125, align 4, !tbaa !23
  %127 = zext i32 %126 to i64
  %128 = getelementptr inbounds nuw i8, ptr %124, i64 %127
  store ptr %128, ptr %8, align 8, !tbaa !5
  store i32 0, ptr %18, align 4
  br label %129

129:                                              ; preds = %123, %114, %73
  call void @llvm.lifetime.end.p0(i64 8, ptr %17) #11
  call void @llvm.lifetime.end.p0(i64 32, ptr %16) #11
  %130 = load i32, ptr %18, align 4
  switch i32 %130, label %133 [
    i32 0, label %131
  ]

131:                                              ; preds = %129
  br label %22, !llvm.loop !41

132:                                              ; preds = %22
  store ptr null, ptr %6, align 8
  store i32 1, ptr %18, align 4
  br label %133

133:                                              ; preds = %132, %129
  call void @llvm.lifetime.end.p0(i64 8, ptr %15) #11
  call void @llvm.lifetime.end.p0(i64 8, ptr %14) #11
  call void @llvm.lifetime.end.p0(i64 1, ptr %13) #11
  call void @llvm.lifetime.end.p0(i64 4, ptr %12) #11
  %134 = load ptr, ptr %6, align 8
  ret ptr %134
}