; Function Attrs: nounwind uwtable
define dso_local noundef ptr @ziplistFind(ptr noundef captures(address) %0, ptr noundef %1, ptr noundef %2, i32 noundef %3, i32 noundef %4) local_unnamed_addr #5 {
  %6 = alloca i64, align 8
  %7 = alloca %struct.zlentry, align 8
  %8 = load i32, ptr %0, align 4, !tbaa !5
  %9 = zext i32 %8 to i64
  %10 = load i8, ptr %1, align 1, !tbaa !9
  %.not75 = icmp eq i8 %10, -1
  br i1 %.not75, label %.loopexit, label %.lr.ph

.lr.ph:                                           ; preds = %5
  %11 = getelementptr inbounds nuw i8, ptr %7, i64 8
  %12 = getelementptr inbounds nuw i8, ptr %7, i64 20
  %13 = getelementptr inbounds nuw i8, ptr %7, i64 12
  %14 = zext i32 %3 to i64
  %15 = add i32 %3, -32
  %or.cond.i = icmp ult i32 %15, -31
  br label %16

16:                                               ; preds = %.lr.ph, %71
  %.02579 = phi ptr [ %1, %.lr.ph ], [ %74, %71 ]
  %.02778 = phi i32 [ 0, %.lr.ph ], [ %.229, %71 ]
  %.04277 = phi i64 [ 0, %.lr.ph ], [ %.3, %71 ]
  %.04576 = phi i8 [ 0, %.lr.ph ], [ %.449, %71 ]
  call void @llvm.lifetime.start.p0(i64 32, ptr nonnull %7) #17
  %17 = call fastcc i32 @zipEntrySafe(ptr noundef nonnull %0, i64 noundef %9, ptr noundef nonnull %.02579, ptr noundef %7, i32 noundef 1)
  %.not31 = icmp eq i32 %17, 0
  br i1 %.not31, label %18, label %19, !prof !24

18:                                               ; preds = %16
  call void @_serverAssert(ptr noundef nonnull @.str.14, ptr noundef nonnull @.str.1, i32 noundef 1359) #17
  call void @abort() #18
  unreachable

19:                                               ; preds = %16
  %20 = load i32, ptr %7, align 8, !tbaa !15
  %21 = zext i32 %20 to i64
  %22 = getelementptr inbounds nuw i8, ptr %.02579, i64 %21
  %23 = load i32, ptr %11, align 8, !tbaa !29
  %24 = zext i32 %23 to i64
  %25 = getelementptr inbounds nuw i8, ptr %22, i64 %24
  %26 = icmp eq i32 %.02778, 0
  br i1 %26, label %27, label %69

27:                                               ; preds = %19
  %28 = load i8, ptr %12, align 4, !tbaa !28
  %.not32 = icmp ugt i8 %28, -65
  br i1 %.not32, label %34, label %29

29:                                               ; preds = %27
  %30 = load i32, ptr %13, align 4, !tbaa !21
  %31 = icmp eq i32 %30, %3
  br i1 %31, label %32, label %71

32:                                               ; preds = %29
  %bcmp = call i32 @bcmp(ptr nonnull %25, ptr %2, i64 %14)
  %33 = icmp eq i32 %bcmp, 0
  br i1 %33, label %.thread65, label %71

34:                                               ; preds = %27
  switch i8 %.04576, label %51 [
    i8 0, label %35
    i8 -1, label %71
  ]

35:                                               ; preds = %34
  call void @llvm.lifetime.start.p0(i64 8, ptr nonnull %6) #17
  br i1 %or.cond.i, label %.thread, label %36

36:                                               ; preds = %35
  %37 = call i32 @string2ll(ptr noundef %2, i64 noundef %14, ptr noundef nonnull %6) #17
  %.not.i = icmp eq i32 %37, 0
  br i1 %.not.i, label %.thread, label %38

38:                                               ; preds = %36
  %39 = load i64, ptr %6, align 8, !tbaa !10
  %or.cond3.i = icmp ult i64 %39, 13
  br i1 %or.cond3.i, label %40, label %43

40:                                               ; preds = %38
  %41 = trunc nuw i64 %39 to i8
  %42 = add nuw nsw i8 %41, -15
  br label %.thread59

43:                                               ; preds = %38
  %44 = add i64 %39, 128
  %or.cond5.i = icmp ult i64 %44, 256
  br i1 %or.cond5.i, label %.thread59, label %45

45:                                               ; preds = %43
  %46 = add i64 %39, 32768
  %or.cond7.i = icmp ult i64 %46, 65536
  br i1 %or.cond7.i, label %.thread59, label %47

47:                                               ; preds = %45
  %48 = add i64 %39, 8388608
  %or.cond9.i = icmp ult i64 %48, 16777216
  br i1 %or.cond9.i, label %.thread59, label %49

49:                                               ; preds = %47
  %50 = add i64 %39, 2147483648
  %or.cond11.i = icmp ult i64 %50, 4294967296
  %..i = select i1 %or.cond11.i, i8 -48, i8 -32
  br label %.thread59

.thread59:                                        ; preds = %40, %43, %45, %47, %49
  %.550.ph = phi i8 [ %..i, %49 ], [ -16, %47 ], [ -64, %45 ], [ -2, %43 ], [ %42, %40 ]
  call void @llvm.lifetime.end.p0(i64 8, ptr nonnull %6) #17
  br label %51

.thread:                                          ; preds = %35, %36
  call void @llvm.lifetime.end.p0(i64 8, ptr nonnull %6) #17
  br label %71

51:                                               ; preds = %34, %.thread59
  %.264 = phi i64 [ %39, %.thread59 ], [ %.04277, %34 ]
  %.24763 = phi i8 [ %.550.ph, %.thread59 ], [ %.04576, %34 ]
  switch i8 %28, label %62 [
    i8 -2, label %52
    i8 -64, label %55
    i8 -48, label %57
    i8 -16, label %59
    i8 -32, label %61
  ]

52:                                               ; preds = %51
  %53 = load i8, ptr %25, align 1, !tbaa !9
  %54 = sext i8 %53 to i64
  br label %zipLoadInteger.exit

55:                                               ; preds = %51
  %.0.copyload7.i = load i16, ptr %25, align 1
  %56 = sext i16 %.0.copyload7.i to i64
  br label %zipLoadInteger.exit

57:                                               ; preds = %51
  %.0.copyload4.i = load i32, ptr %25, align 1
  %58 = sext i32 %.0.copyload4.i to i64
  br label %zipLoadInteger.exit

59:                                               ; preds = %51
  %.1.copyload.i = load i24, ptr %25, align 1
  %60 = sext i24 %.1.copyload.i to i64
  br label %zipLoadInteger.exit

61:                                               ; preds = %51
  %.0.copyload.i = load i64, ptr %25, align 1
  br label %zipLoadInteger.exit

62:                                               ; preds = %51
  %63 = add nsw i8 %28, 15
  %or.cond.i38 = icmp ult i8 %63, 14
  br i1 %or.cond.i38, label %64, label %68

64:                                               ; preds = %62
  %65 = and i8 %28, 15
  %66 = zext nneg i8 %65 to i64
  %67 = add nsw i64 %66, -1
  br label %zipLoadInteger.exit

68:                                               ; preds = %62
  call void @_serverAssert(ptr noundef nonnull @.str, ptr noundef nonnull @.str.1, i32 noundef 604) #17
  call void @abort() #18
  unreachable

zipLoadInteger.exit:                              ; preds = %52, %55, %57, %59, %61, %64
  %.0.i37 = phi i64 [ %54, %52 ], [ %56, %55 ], [ %58, %57 ], [ %60, %59 ], [ %.0.copyload.i, %61 ], [ %67, %64 ]
  %.not36 = icmp eq i64 %.0.i37, %.264
  br i1 %.not36, label %.thread65, label %71

69:                                               ; preds = %19
  %70 = add nsw i32 %.02778, -1
  br label %71

.thread65:                                        ; preds = %zipLoadInteger.exit, %32
  call void @llvm.lifetime.end.p0(i64 32, ptr nonnull %7) #17
  br label %.loopexit

71:                                               ; preds = %34, %69, %zipLoadInteger.exit, %29, %32, %.thread
  %.449 = phi i8 [ %.24763, %zipLoadInteger.exit ], [ %.04576, %32 ], [ %.04576, %29 ], [ %.04576, %69 ], [ -1, %.thread ], [ %.04576, %34 ]
  %.3 = phi i64 [ %.264, %zipLoadInteger.exit ], [ %.04277, %32 ], [ %.04277, %29 ], [ %.04277, %69 ], [ %.04277, %.thread ], [ %.04277, %34 ]
  %.229 = phi i32 [ %4, %zipLoadInteger.exit ], [ %4, %32 ], [ %4, %29 ], [ %70, %69 ], [ %4, %.thread ], [ %4, %34 ]
  %72 = load i32, ptr %13, align 4, !tbaa !21
  %73 = zext i32 %72 to i64
  %74 = getelementptr inbounds nuw i8, ptr %25, i64 %73
  call void @llvm.lifetime.end.p0(i64 32, ptr nonnull %7) #17
  %75 = load i8, ptr %74, align 1, !tbaa !9
  %.not = icmp eq i8 %75, -1
  br i1 %.not, label %.loopexit, label %16, !llvm.loop !35

.loopexit:                                        ; preds = %71, %5, %.thread65
  %.5 = phi ptr [ %.02579, %.thread65 ], [ null, %5 ], [ null, %71 ]
  ret ptr %.5
}